target datalayout = "e-m:e-p270:32:32-p271:32:32-p272:64:64-i64:64-i128:128-f80:128-n8:16:32:64-S128"
target triple = "x86_64-pc-linux-gnu"

%struct.PortalData = type { ptr, ptr, ptr, ptr, ptr, i32, i32, i32, ptr, i32, %struct.QueryCompletion, ptr, ptr, ptr, ptr, i32, i32, i32, i8, i8, ptr, ptr, ptr, ptr, ptr, ptr, ptr, i8, i8, i64, i64, i8 }
%struct.QueryCompletion = type { i32, i64 }

@CurrentMemoryContext = external global ptr, align 8

; Function Attrs: inlinehint nounwind uwtable
define internal ptr @MemoryContextSwitchTo(ptr noundef %0) #3 {
  %2 = alloca ptr, align 8
  %3 = alloca ptr, align 8
  store ptr %0, ptr %2, align 8
  call void @llvm.lifetime.start.p0(i64 8, ptr %3) #10
  %4 = load ptr, ptr @CurrentMemoryContext, align 8
  store ptr %4, ptr %3, align 8
  %5 = load ptr, ptr %2, align 8
  store ptr %5, ptr @CurrentMemoryContext, align 8
  %6 = load ptr, ptr %3, align 8
  call void @llvm.lifetime.end.p0(i64 8, ptr %3) #10
  ret ptr %6
}

; Function Attrs: nounwind uwtable
define internal void @PortalRunUtility(ptr noundef %0, ptr noundef %1, i1 noundef zeroext %2, i1 noundef zeroext %3, ptr noundef %4, ptr noundef %5) #0 {
  %7 = alloca ptr, align 8
  %8 = alloca ptr, align 8
  %9 = alloca i8, align 1
  %10 = alloca i8, align 1
  %11 = alloca ptr, align 8
  %12 = alloca ptr, align 8
  %13 = alloca ptr, align 8
  store ptr %0, ptr %7, align 8
  store ptr %1, ptr %8, align 8
  %14 = zext i1 %2 to i8
  store i8 %14, ptr %9, align 1
  %15 = zext i1 %3 to i8
  store i8 %15, ptr %10, align 1
  store ptr %4, ptr %11, align 8
  store ptr %5, ptr %12, align 8
  %16 = load ptr, ptr %8, align 8
  %17 = call zeroext i1 @PlannedStmtRequiresSnapshot(ptr noundef %16)
  br i1 %17, label %18, label %36

18:                                               ; preds = %6
  call void @llvm.lifetime.start.p0(i64 8, ptr %13) #10
  %19 = call ptr @GetTransactionSnapshot()
  store ptr %19, ptr %13, align 8
  %20 = load i8, ptr %10, align 1, !range !4, !noundef !5
  %21 = trunc i8 %20 to i1
  br i1 %21, label %22, label %28

22:                                               ; preds = %18
  %23 = load ptr, ptr %13, align 8
  %24 = call ptr @RegisterSnapshot(ptr noundef %23)
  store ptr %24, ptr %13, align 8
  %25 = load ptr, ptr %13, align 8
  %26 = load ptr, ptr %7, align 8
  %27 = getelementptr inbounds nuw %struct.PortalData, ptr %26, i32 0, i32 26
  store ptr %25, ptr %27, align 8
  br label %28

28:                                               ; preds = %22, %18
  %29 = load ptr, ptr %13, align 8
  %30 = load ptr, ptr %7, align 8
  %31 = getelementptr inbounds nuw %struct.PortalData, ptr %30, i32 0, i32 7
  %32 = load i32, ptr %31, align 8
  call void @PushActiveSnapshotWithLevel(ptr noundef %29, i32 noundef %32)
  %33 = call ptr @GetActiveSnapshot()
  %34 = load ptr, ptr %7, align 8
  %35 = getelementptr inbounds nuw %struct.PortalData, ptr %34, i32 0, i32 23
  store ptr %33, ptr %35, align 8
  call void @llvm.lifetime.end.p0(i64 8, ptr %13) #10
  br label %39

36:                                               ; preds = %6
  %37 = load ptr, ptr %7, align 8
  %38 = getelementptr inbounds nuw %struct.PortalData, ptr %37, i32 0, i32 23
  store ptr null, ptr %38, align 8
  br label %39

39:                                               ; preds = %36, %28
  %40 = load ptr, ptr %8, align 8
  %41 = load ptr, ptr %7, align 8
  %42 = getelementptr inbounds nuw %struct.PortalData, ptr %41, i32 0, i32 8
  %43 = load ptr, ptr %42, align 8
  %44 = load ptr, ptr %7, align 8
  %45 = getelementptr inbounds nuw %struct.PortalData, ptr %44, i32 0, i32 12
  %46 = load ptr, ptr %45, align 8
  %47 = icmp ne ptr %46, null
  %48 = load i8, ptr %9, align 1, !range !4, !noundef !5
  %49 = trunc i8 %48 to i1
  %50 = select i1 %49, i32 0, i32 1
  %51 = load ptr, ptr %7, align 8
  %52 = getelementptr inbounds nuw %struct.PortalData, ptr %51, i32 0, i32 13
  %53 = load ptr, ptr %52, align 8
  %54 = load ptr, ptr %7, align 8
  %55 = getelementptr inbounds nuw %struct.PortalData, ptr %54, i32 0, i32 14
  %56 = load ptr, ptr %55, align 8
  %57 = load ptr, ptr %11, align 8
  %58 = load ptr, ptr %12, align 8
  call void @ProcessUtility(ptr noundef %40, ptr noundef %43, i1 noundef zeroext %47, i32 noundef %50, ptr noundef %53, ptr noundef %56, ptr noundef %57, ptr noundef %58)
  %59 = load ptr, ptr %7, align 8
  %60 = getelementptr inbounds nuw %struct.PortalData, ptr %59, i32 0, i32 2
  %61 = load ptr, ptr %60, align 8
  %62 = call ptr @MemoryContextSwitchTo(ptr noundef %61)
  %63 = load ptr, ptr %7, align 8
  %64 = getelementptr inbounds nuw %struct.PortalData, ptr %63, i32 0, i32 23
  %65 = load ptr, ptr %64, align 8
  %66 = icmp ne ptr %65, null
  br i1 %66, label %67, label %70

67:                                               ; preds = %39
  %68 = call zeroext i1 @ActiveSnapshotSet()
  br i1 %68, label %69, label %70

69:                                               ; preds = %67
  call void @PopActiveSnapshot()
  br label %70

70:                                               ; preds = %69, %67, %39
  %71 = load ptr, ptr %7, align 8
  %72 = getelementptr inbounds nuw %struct.PortalData, ptr %71, i32 0, i32 23
  store ptr null, ptr %72, align 8
  ret void
}