; Function Attrs: nounwind uwtable
define internal fastcc void @PortalRunUtility(ptr noundef captures(none) initializes((160, 168)) %0, ptr noundef %1, i1 noundef zeroext %2, i1 noundef zeroext %3, ptr noundef %4, ptr noundef %5) unnamed_addr #0 {
  %7 = tail call zeroext i1 @PlannedStmtRequiresSnapshot(ptr noundef %1)
  br i1 %7, label %8, label %17

8:                                                ; preds = %6
  %9 = tail call ptr @GetTransactionSnapshot() #11
  br i1 %3, label %10, label %13

10:                                               ; preds = %8
  %11 = tail call ptr @RegisterSnapshot(ptr noundef %9) #11
  %12 = getelementptr inbounds nuw i8, ptr %0, i64 184
  store ptr %11, ptr %12, align 8
  br label %13

13:                                               ; preds = %10, %8
  %.0 = phi ptr [ %11, %10 ], [ %9, %8 ]
  %14 = getelementptr inbounds nuw i8, ptr %0, i64 48
  %15 = load i32, ptr %14, align 8
  tail call void @PushActiveSnapshotWithLevel(ptr noundef %.0, i32 noundef %15) #11
  %16 = tail call ptr @GetActiveSnapshot() #11
  br label %17

17:                                               ; preds = %6, %13
  %.sink = phi ptr [ %16, %13 ], [ null, %6 ]
  %18 = getelementptr inbounds nuw i8, ptr %0, i64 160
  store ptr %.sink, ptr %18, align 8
  %19 = getelementptr inbounds nuw i8, ptr %0, i64 56
  %20 = load ptr, ptr %19, align 8
  %21 = getelementptr inbounds nuw i8, ptr %0, i64 96
  %22 = load ptr, ptr %21, align 8
  %23 = icmp ne ptr %22, null
  %not. = xor i1 %2, true
  %24 = zext i1 %not. to i32
  %25 = getelementptr inbounds nuw i8, ptr %0, i64 104
  %26 = load ptr, ptr %25, align 8
  %27 = getelementptr inbounds nuw i8, ptr %0, i64 112
  %28 = load ptr, ptr %27, align 8
  tail call void @ProcessUtility(ptr noundef %1, ptr noundef %20, i1 noundef zeroext %23, i32 noundef %24, ptr noundef %26, ptr noundef %28, ptr noundef %4, ptr noundef %5) #11
  %29 = getelementptr inbounds nuw i8, ptr %0, i64 16
  %30 = load ptr, ptr %29, align 8
  store ptr %30, ptr @CurrentMemoryContext, align 8
  %31 = getelementptr inbounds nuw i8, ptr %0, i64 160
  %32 = load ptr, ptr %31, align 8
  %.not = icmp eq ptr %32, null
  br i1 %.not, label %36, label %33

33:                                               ; preds = %17
  %34 = tail call zeroext i1 @ActiveSnapshotSet() #11
  br i1 %34, label %35, label %36

35:                                               ; preds = %33
  tail call void @PopActiveSnapshot() #11
  br label %36

36:                                               ; preds = %35, %33, %17
  store ptr null, ptr %31, align 8
  ret void
}